target datalayout = "e-m:e-p270:32:32-p271:32:32-p272:64:64-i64:64-i128:128-f80:128-n8:16:32:64-S128"
target triple = "x86_64-pc-linux-gnu"

%struct.DdManager = type { %struct.DdNode, ptr, ptr, ptr, ptr, ptr, ptr, ptr, i32, i32, double, double, double, i32, i32, i32, i32, i32, i32, ptr, ptr, %struct.DdSubtable, i32, i32, i32, i32, i32, i32, i32, double, i32, i32, i32, ptr, i64, double, i32, ptr, ptr, ptr, ptr, ptr, ptr, ptr, i32, ptr, ptr, ptr, ptr, ptr, ptr, i32, i32, i32, double, i32, i32, i32, i32, double, double, i32, i32, i32, i32, i32, i32, i32, i32, i32, ptr, ptr, i32, i32, i32, i32, i32, i32, ptr, ptr, ptr, ptr, ptr, ptr, ptr, ptr, i32, i64, i64, i64, i32, i64, i64, double, double, double, double, double, double, i32, ptr, ptr, i64 }
%struct.DdNode = type { i32, i32, ptr, %union.anon, i64 }
%union.anon = type { %struct.DdChildren }
%struct.DdChildren = type { ptr, ptr }
%struct.DdSubtable = type { ptr, i32, i32, i32, i32, i32, i32, i32, i32, i32, i32, i32 }
%struct.Aig_Obj_t_ = type { %union.anon.0, ptr, ptr, i64, i32, i32, %union.anon.1 }
%union.anon.0 = type { ptr }
%union.anon.1 = type { ptr }
%struct.Aig_Man_t_ = type { ptr, ptr, ptr, ptr, ptr, ptr, ptr, %struct.Aig_Obj_t_, i32, i32, i32, i32, i32, i32, [7 x i32], i32, ptr, i32, ptr, i32, ptr, i32, i32, i32, ptr, i32, i32, i32, i32, i32, ptr, ptr, i32, ptr, ptr, i32, ptr, ptr, i32, i32, i32, ptr, ptr, ptr, ptr, ptr, ptr, ptr, ptr, ptr, ptr, ptr, ptr, ptr, ptr, i32, ptr, ptr, ptr, ptr, i32, i64, i64, i64, ptr, ptr }
%struct.Vec_Ptr_t_ = type { i32, i32, ptr }
%struct.Llb_Man_t_ = type { ptr, ptr, ptr, ptr, ptr, ptr, ptr, ptr, ptr, ptr, ptr, ptr, ptr, ptr, ptr, ptr, ptr }
%struct.Vec_Int_t_ = type { i32, i32, ptr }
%struct.Llb_Mtr_t_ = type { i32, i32, i32, i32, ptr, ptr, ptr, ptr, ptr, ptr, ptr }

@.str = private unnamed_addr constant [42 x i8] c"Var %d assigned to obj %d that is not LI\0A\00", align 1

; Function Attrs: nounwind uwtable
define internal i32 @Saig_ManPoNum(ptr noundef %0) #0 {
  %2 = alloca ptr, align 8
  store ptr %0, ptr %2, align 8
  %3 = load ptr, ptr %2, align 8
  %4 = getelementptr inbounds %struct.Aig_Man_t_, ptr %3, i32 0, i32 10
  %5 = load i32, ptr %4, align 8
  ret i32 %5
}

; Function Attrs: nounwind uwtable
define internal i32 @Aig_ObjCioId(ptr noundef %0) #0 {
  %2 = alloca ptr, align 8
  store ptr %0, ptr %2, align 8
  %3 = load ptr, ptr %2, align 8
  %4 = getelementptr inbounds %struct.Aig_Obj_t_, ptr %3, i32 0, i32 0
  %5 = load i32, ptr %4, align 8
  ret i32 %5
}

; Function Attrs: nounwind uwtable
define internal i32 @Aig_ObjIsCo(ptr noundef %0) #0 {
  %2 = alloca ptr, align 8
  store ptr %0, ptr %2, align 8
  %3 = load ptr, ptr %2, align 8
  %4 = getelementptr inbounds %struct.Aig_Obj_t_, ptr %3, i32 0, i32 3
  %5 = load i64, ptr %4, align 8
  %6 = and i64 %5, 7
  %7 = trunc i64 %6 to i32
  %8 = icmp eq i32 %7, 3
  %9 = zext i1 %8 to i32
  ret i32 %9
}

; Function Attrs: nounwind uwtable
define internal ptr @Vec_PtrEntry(ptr noundef %0, i32 noundef %1) #0 {
  %3 = alloca ptr, align 8
  %4 = alloca i32, align 4
  store ptr %0, ptr %3, align 8
  store i32 %1, ptr %4, align 4
  %5 = load ptr, ptr %3, align 8
  %6 = getelementptr inbounds %struct.Vec_Ptr_t_, ptr %5, i32 0, i32 2
  %7 = load ptr, ptr %6, align 8
  %8 = load i32, ptr %4, align 4
  %9 = sext i32 %8 to i64
  %10 = getelementptr inbounds ptr, ptr %7, i64 %9
  %11 = load ptr, ptr %10, align 8
  ret ptr %11
}

; Function Attrs: nounwind uwtable
define internal i32 @Saig_ObjIsLi(ptr noundef %0, ptr noundef %1) #0 {
  %3 = alloca ptr, align 8
  %4 = alloca ptr, align 8
  store ptr %0, ptr %3, align 8
  store ptr %1, ptr %4, align 8
  %5 = load ptr, ptr %4, align 8
  %6 = call i32 @Aig_ObjIsCo(ptr noundef %5)
  %7 = icmp ne i32 %6, 0
  br i1 %7, label %8, label %14

8:                                                ; preds = %2
  %9 = load ptr, ptr %4, align 8
  %10 = call i32 @Aig_ObjCioId(ptr noundef %9)
  %11 = load ptr, ptr %3, align 8
  %12 = call i32 @Saig_ManPoNum(ptr noundef %11)
  %13 = icmp sge i32 %10, %12
  br label %14

14:                                               ; preds = %8, %2
  %15 = phi i1 [ false, %2 ], [ %13, %8 ]
  %16 = zext i1 %15 to i32
  ret i32 %16
}

; Function Attrs: nounwind uwtable
define internal ptr @Aig_ManObj(ptr noundef %0, i32 noundef %1) #0 {
  %3 = alloca ptr, align 8
  %4 = alloca i32, align 4
  store ptr %0, ptr %3, align 8
  store i32 %1, ptr %4, align 4
  %5 = load ptr, ptr %3, align 8
  %6 = getelementptr inbounds %struct.Aig_Man_t_, ptr %5, i32 0, i32 4
  %7 = load ptr, ptr %6, align 8
  %8 = icmp ne ptr %7, null
  br i1 %8, label %9, label %15

9:                                                ; preds = %2
  %10 = load ptr, ptr %3, align 8
  %11 = getelementptr inbounds %struct.Aig_Man_t_, ptr %10, i32 0, i32 4
  %12 = load ptr, ptr %11, align 8
  %13 = load i32, ptr %4, align 4
  %14 = call ptr @Vec_PtrEntry(ptr noundef %12, i32 noundef %13)
  br label %16

15:                                               ; preds = %2
  br label %16

16:                                               ; preds = %15, %9
  %17 = phi ptr [ %14, %9 ], [ null, %15 ]
  ret ptr %17
}

; Function Attrs: nounwind uwtable
define internal i32 @Vec_IntEntry(ptr noundef %0, i32 noundef %1) #0 {
  %3 = alloca ptr, align 8
  %4 = alloca i32, align 4
  store ptr %0, ptr %3, align 8
  store i32 %1, ptr %4, align 4
  %5 = load ptr, ptr %3, align 8
  %6 = getelementptr inbounds %struct.Vec_Int_t_, ptr %5, i32 0, i32 2
  %7 = load ptr, ptr %6, align 8
  %8 = load i32, ptr %4, align 4
  %9 = sext i32 %8 to i64
  %10 = getelementptr inbounds i32, ptr %7, i64 %9
  %11 = load i32, ptr %10, align 4
  ret i32 %11
}

; Function Attrs: nounwind uwtable
define ptr @Llb_ManComputeImage(ptr noundef %0, ptr noundef %1, i32 noundef %2) #0 {
  %4 = alloca ptr, align 8
  %5 = alloca ptr, align 8
  %6 = alloca ptr, align 8
  %7 = alloca i32, align 4
  %8 = alloca i32, align 4
  %9 = alloca ptr, align 8
  %10 = alloca ptr, align 8
  %11 = alloca ptr, align 8
  %12 = alloca ptr, align 8
  %13 = alloca ptr, align 8
  %14 = alloca i32, align 4
  %15 = alloca i32, align 4
  %16 = alloca i32, align 4
  %17 = alloca ptr, align 8
  store ptr %0, ptr %5, align 8
  store ptr %1, ptr %6, align 8
  store i32 %2, ptr %7, align 4
  store i32 0, ptr %8, align 4
  %18 = load ptr, ptr %6, align 8
  store ptr %18, ptr %10, align 8
  %19 = load ptr, ptr %10, align 8
  call void @Cudd_Ref(ptr noundef %19)
  store i32 1, ptr %14, align 4
  br label %20

20:                                               ; preds = %148, %3
  %21 = load i32, ptr %14, align 4
  %22 = load ptr, ptr %5, align 8
  %23 = getelementptr inbounds %struct.Llb_Man_t_, ptr %22, i32 0, i32 9
  %24 = load ptr, ptr %23, align 8
  %25 = getelementptr inbounds %struct.Llb_Mtr_t_, ptr %24, i32 0, i32 3
  %26 = load i32, ptr %25, align 4
  %27 = sub nsw i32 %26, 1
  %28 = icmp slt i32 %21, %27
  br i1 %28, label %29, label %151

29:                                               ; preds = %20
  %30 = load i32, ptr %7, align 4
  %31 = icmp ne i32 %30, 0
  br i1 %31, label %32, label %41

32:                                               ; preds = %29
  %33 = load ptr, ptr %5, align 8
  %34 = getelementptr inbounds %struct.Llb_Man_t_, ptr %33, i32 0, i32 9
  %35 = load ptr, ptr %34, align 8
  %36 = getelementptr inbounds %struct.Llb_Mtr_t_, ptr %35, i32 0, i32 3
  %37 = load i32, ptr %36, align 4
  %38 = sub nsw i32 %37, 1
  %39 = load i32, ptr %14, align 4
  %40 = sub nsw i32 %38, %39
  store i32 %40, ptr %15, align 4
  br label %43

41:                                               ; preds = %29
  %42 = load i32, ptr %14, align 4
  store i32 %42, ptr %15, align 4
  br label %43

43:                                               ; preds = %41, %32
  %44 = load ptr, ptr %5, align 8
  %45 = getelementptr inbounds %struct.Llb_Man_t_, ptr %44, i32 0, i32 9
  %46 = load ptr, ptr %45, align 8
  %47 = getelementptr inbounds %struct.Llb_Mtr_t_, ptr %46, i32 0, i32 5
  %48 = load ptr, ptr %47, align 8
  %49 = load i32, ptr %15, align 4
  %50 = sext i32 %49 to i64
  %51 = getelementptr inbounds ptr, ptr %48, i64 %50
  %52 = load ptr, ptr %51, align 8
  store ptr %52, ptr %9, align 8
  %53 = load ptr, ptr %5, align 8
  %54 = load ptr, ptr %9, align 8
  %55 = call ptr @Llb_ManConstructGroupBdd(ptr noundef %53, ptr noundef %54)
  store ptr %55, ptr %11, align 8
  %56 = load ptr, ptr %11, align 8
  %57 = icmp eq ptr %56, null
  br i1 %57, label %58, label %63

58:                                               ; preds = %43
  %59 = load ptr, ptr %5, align 8
  %60 = getelementptr inbounds %struct.Llb_Man_t_, ptr %59, i32 0, i32 3
  %61 = load ptr, ptr %60, align 8
  %62 = load ptr, ptr %10, align 8
  call void @Cudd_RecursiveDeref(ptr noundef %61, ptr noundef %62)
  store ptr null, ptr %4, align 8
  br label %209

63:                                               ; preds = %43
  %64 = load ptr, ptr %11, align 8
  call void @Cudd_Ref(ptr noundef %64)
  %65 = load ptr, ptr %5, align 8
  %66 = load ptr, ptr %9, align 8
  %67 = load i32, ptr %15, align 4
  %68 = load i32, ptr %7, align 4
  %69 = call ptr @Llb_ManConstructQuantCubeIntern(ptr noundef %65, ptr noundef %66, i32 noundef %67, i32 noundef %68)
  store ptr %69, ptr %12, align 8
  %70 = load ptr, ptr %12, align 8
  call void @Cudd_Ref(ptr noundef %70)
  %71 = load ptr, ptr %5, align 8
  %72 = getelementptr inbounds %struct.Llb_Man_t_, ptr %71, i32 0, i32 3
  %73 = load ptr, ptr %72, align 8
  %74 = load ptr, ptr %11, align 8
  store ptr %74, ptr %13, align 8
  %75 = load ptr, ptr %12, align 8
  %76 = call ptr @Cudd_bddExistAbstract(ptr noundef %73, ptr noundef %74, ptr noundef %75)
  store ptr %76, ptr %11, align 8
  %77 = load ptr, ptr %11, align 8
  %78 = icmp eq ptr %77, null
  br i1 %78, label %79, label %88

79:                                               ; preds = %63
  %80 = load ptr, ptr %5, align 8
  %81 = getelementptr inbounds %struct.Llb_Man_t_, ptr %80, i32 0, i32 3
  %82 = load ptr, ptr %81, align 8
  %83 = load ptr, ptr %13, align 8
  call void @Cudd_RecursiveDeref(ptr noundef %82, ptr noundef %83)
  %84 = load ptr, ptr %5, align 8
  %85 = getelementptr inbounds %struct.Llb_Man_t_, ptr %84, i32 0, i32 3
  %86 = load ptr, ptr %85, align 8
  %87 = load ptr, ptr %12, align 8
  call void @Cudd_RecursiveDeref(ptr noundef %86, ptr noundef %87)
  store ptr null, ptr %4, align 8
  br label %209

88:                                               ; preds = %63
  %89 = load ptr, ptr %11, align 8
  call void @Cudd_Ref(ptr noundef %89)
  %90 = load ptr, ptr %5, align 8
  %91 = getelementptr inbounds %struct.Llb_Man_t_, ptr %90, i32 0, i32 3
  %92 = load ptr, ptr %91, align 8
  %93 = load ptr, ptr %13, align 8
  call void @Cudd_RecursiveDeref(ptr noundef %92, ptr noundef %93)
  %94 = load ptr, ptr %5, align 8
  %95 = getelementptr inbounds %struct.Llb_Man_t_, ptr %94, i32 0, i32 3
  %96 = load ptr, ptr %95, align 8
  %97 = load ptr, ptr %12, align 8
  call void @Cudd_RecursiveDeref(ptr noundef %96, ptr noundef %97)
  %98 = load i32, ptr %7, align 4
  %99 = icmp ne i32 %98, 0
  br i1 %99, label %100, label %105

100:                                              ; preds = %88
  %101 = load ptr, ptr %5, align 8
  %102 = load ptr, ptr %9, align 8
  %103 = load i32, ptr %15, align 4
  %104 = call ptr @Llb_ManConstructQuantCubeBwd(ptr noundef %101, ptr noundef %102, i32 noundef %103)
  store ptr %104, ptr %12, align 8
  br label %110

105:                                              ; preds = %88
  %106 = load ptr, ptr %5, align 8
  %107 = load ptr, ptr %9, align 8
  %108 = load i32, ptr %15, align 4
  %109 = call ptr @Llb_ManConstructQuantCubeFwd(ptr noundef %106, ptr noundef %107, i32 noundef %108)
  store ptr %109, ptr %12, align 8
  br label %110

110:                                              ; preds = %105, %100
  %111 = load ptr, ptr %12, align 8
  call void @Cudd_Ref(ptr noundef %111)
  %112 = load ptr, ptr %5, align 8
  %113 = getelementptr inbounds %struct.Llb_Man_t_, ptr %112, i32 0, i32 3
  %114 = load ptr, ptr %113, align 8
  %115 = load ptr, ptr %10, align 8
  store ptr %115, ptr %13, align 8
  %116 = load ptr, ptr %11, align 8
  %117 = load ptr, ptr %12, align 8
  %118 = call ptr @Cudd_bddAndAbstract(ptr noundef %114, ptr noundef %115, ptr noundef %116, ptr noundef %117)
  store ptr %118, ptr %10, align 8
  %119 = load ptr, ptr %10, align 8
  %120 = icmp eq ptr %119, null
  br i1 %120, label %121, label %134

121:                                              ; preds = %110
  %122 = load ptr, ptr %5, align 8
  %123 = getelementptr inbounds %struct.Llb_Man_t_, ptr %122, i32 0, i32 3
  %124 = load ptr, ptr %123, align 8
  %125 = load ptr, ptr %13, align 8
  call void @Cudd_RecursiveDeref(ptr noundef %124, ptr noundef %125)
  %126 = load ptr, ptr %5, align 8
  %127 = getelementptr inbounds %struct.Llb_Man_t_, ptr %126, i32 0, i32 3
  %128 = load ptr, ptr %127, align 8
  %129 = load ptr, ptr %11, align 8
  call void @Cudd_RecursiveDeref(ptr noundef %128, ptr noundef %129)
  %130 = load ptr, ptr %5, align 8
  %131 = getelementptr inbounds %struct.Llb_Man_t_, ptr %130, i32 0, i32 3
  %132 = load ptr, ptr %131, align 8
  %133 = load ptr, ptr %12, align 8
  call void @Cudd_RecursiveDeref(ptr noundef %132, ptr noundef %133)
  store ptr null, ptr %4, align 8
  br label %209

134:                                              ; preds = %110
  %135 = load ptr, ptr %10, align 8
  call void @Cudd_Ref(ptr noundef %135)
  %136 = load ptr, ptr %5, align 8
  %137 = getelementptr inbounds %struct.Llb_Man_t_, ptr %136, i32 0, i32 3
  %138 = load ptr, ptr %137, align 8
  %139 = load ptr, ptr %13, align 8
  call void @Cudd_RecursiveDeref(ptr noundef %138, ptr noundef %139)
  %140 = load ptr, ptr %5, align 8
  %141 = getelementptr inbounds %struct.Llb_Man_t_, ptr %140, i32 0, i32 3
  %142 = load ptr, ptr %141, align 8
  %143 = load ptr, ptr %11, align 8
  call void @Cudd_RecursiveDeref(ptr noundef %142, ptr noundef %143)
  %144 = load ptr, ptr %5, align 8
  %145 = getelementptr inbounds %struct.Llb_Man_t_, ptr %144, i32 0, i32 3
  %146 = load ptr, ptr %145, align 8
  %147 = load ptr, ptr %12, align 8
  call void @Cudd_RecursiveDeref(ptr noundef %146, ptr noundef %147)
  br label %148

148:                                              ; preds = %134
  %149 = load i32, ptr %14, align 4
  %150 = add nsw i32 %149, 1
  store i32 %150, ptr %14, align 4
  br label %20, !llvm.loop !20

151:                                              ; preds = %20
  %152 = load i32, ptr %8, align 4
  %153 = icmp ne i32 %152, 0
  br i1 %153, label %154, label %206

154:                                              ; preds = %151
  %155 = load ptr, ptr %5, align 8
  %156 = getelementptr inbounds %struct.Llb_Man_t_, ptr %155, i32 0, i32 3
  %157 = load ptr, ptr %156, align 8
  %158 = load ptr, ptr %10, align 8
  %159 = call ptr @Cudd_Support(ptr noundef %157, ptr noundef %158)
  store ptr %159, ptr %12, align 8
  %160 = load ptr, ptr %12, align 8
  call void @Cudd_Ref(ptr noundef %160)
  %161 = load ptr, ptr %12, align 8
  store ptr %161, ptr %13, align 8
  br label %162

162:                                              ; preds = %196, %154
  %163 = load ptr, ptr %13, align 8
  %164 = load ptr, ptr %5, align 8
  %165 = getelementptr inbounds %struct.Llb_Man_t_, ptr %164, i32 0, i32 3
  %166 = load ptr, ptr %165, align 8
  %167 = getelementptr inbounds %struct.DdManager, ptr %166, i32 0, i32 1
  %168 = load ptr, ptr %167, align 8
  %169 = icmp ne ptr %163, %168
  br i1 %169, label %170, label %201

170:                                              ; preds = %162
  %171 = load ptr, ptr %5, align 8
  %172 = getelementptr inbounds %struct.Llb_Man_t_, ptr %171, i32 0, i32 7
  %173 = load ptr, ptr %172, align 8
  %174 = load ptr, ptr %13, align 8
  %175 = getelementptr inbounds %struct.DdNode, ptr %174, i32 0, i32 0
  %176 = load i32, ptr %175, align 8
  %177 = call i32 @Vec_IntEntry(ptr noundef %173, i32 noundef %176)
  store i32 %177, ptr %16, align 4
  %178 = load ptr, ptr %5, align 8
  %179 = getelementptr inbounds %struct.Llb_Man_t_, ptr %178, i32 0, i32 2
  %180 = load ptr, ptr %179, align 8
  %181 = load i32, ptr %16, align 4
  %182 = call ptr @Aig_ManObj(ptr noundef %180, i32 noundef %181)
  store ptr %182, ptr %17, align 8
  %183 = load ptr, ptr %5, align 8
  %184 = getelementptr inbounds %struct.Llb_Man_t_, ptr %183, i32 0, i32 2
  %185 = load ptr, ptr %184, align 8
  %186 = load ptr, ptr %17, align 8
  %187 = call i32 @Saig_ObjIsLi(ptr noundef %185, ptr noundef %186)
  %188 = icmp ne i32 %187, 0
  br i1 %188, label %195, label %189

189:                                              ; preds = %170
  %190 = load ptr, ptr %13, align 8
  %191 = getelementptr inbounds %struct.DdNode, ptr %190, i32 0, i32 0
  %192 = load i32, ptr %191, align 8
  %193 = load i32, ptr %16, align 4
  %194 = call i32 (ptr, ...) @printf(ptr noundef @.str, i32 noundef %192, i32 noundef %193)
  br label %195

195:                                              ; preds = %189, %170
  br label %196

196:                                              ; preds = %195
  %197 = load ptr, ptr %13, align 8
  %198 = getelementptr inbounds %struct.DdNode, ptr %197, i32 0, i32 3
  %199 = getelementptr inbounds %struct.DdChildren, ptr %198, i32 0, i32 0
  %200 = load ptr, ptr %199, align 8
  store ptr %200, ptr %13, align 8
  br label %162, !llvm.loop !21

201:                                              ; preds = %162
  %202 = load ptr, ptr %5, align 8
  %203 = getelementptr inbounds %struct.Llb_Man_t_, ptr %202, i32 0, i32 3
  %204 = load ptr, ptr %203, align 8
  %205 = load ptr, ptr %12, align 8
  call void @Cudd_RecursiveDeref(ptr noundef %204, ptr noundef %205)
  br label %206

206:                                              ; preds = %201, %151
  %207 = load ptr, ptr %10, align 8
  call void @Cudd_Deref(ptr noundef %207)
  %208 = load ptr, ptr %10, align 8
  store ptr %208, ptr %4, align 8
  br label %209

209:                                              ; preds = %206, %121, %79, %58
  %210 = load ptr, ptr %4, align 8
  ret ptr %210
}