; Function Attrs: nounwind uwtable
define noundef ptr @Llb_ManComputeImage(ptr noundef readonly captures(none) %0, ptr noundef %1, i32 noundef %2) local_unnamed_addr #0 {
  tail call void @Cudd_Ref(ptr noundef %1) #12
  %4 = getelementptr inbounds nuw i8, ptr %0, i64 72
  %5 = load ptr, ptr %4, align 8
  %6 = getelementptr inbounds nuw i8, ptr %5, i64 12
  %7 = load i32, ptr %6, align 4
  %8 = icmp sgt i32 %7, 2
  br i1 %8, label %.lr.ph, label %._crit_edge

.lr.ph:                                           ; preds = %3
  %9 = add nsw i32 %7, -1
  %.not = icmp eq i32 %2, 0
  %10 = getelementptr inbounds nuw i8, ptr %0, i64 24
  br label %11

11:                                               ; preds = %.lr.ph, %47
  %12 = phi i32 [ %9, %.lr.ph ], [ %55, %47 ]
  %13 = phi ptr [ %5, %.lr.ph ], [ %52, %47 ]
  %.081102 = phi ptr [ %1, %.lr.ph ], [ %41, %47 ]
  %.083101 = phi i32 [ 1, %.lr.ph ], [ %51, %47 ]
  %14 = sub nsw i32 %12, %.083101
  %.082 = select i1 %.not, i32 %.083101, i32 %14
  %15 = getelementptr inbounds nuw i8, ptr %13, i64 24
  %16 = load ptr, ptr %15, align 8
  %17 = sext i32 %.082 to i64
  %18 = getelementptr inbounds ptr, ptr %16, i64 %17
  %19 = load ptr, ptr %18, align 8
  %20 = tail call ptr @Llb_ManConstructGroupBdd(ptr noundef nonnull %0, ptr noundef %19)
  %21 = icmp eq ptr %20, null
  br i1 %21, label %22, label %24

22:                                               ; preds = %11
  %23 = load ptr, ptr %10, align 8
  tail call void @Cudd_RecursiveDeref(ptr noundef %23, ptr noundef %.081102) #12
  br label %57

24:                                               ; preds = %11
  tail call void @Cudd_Ref(ptr noundef nonnull %20) #12
  %25 = tail call ptr @Llb_ManConstructQuantCubeIntern(ptr noundef nonnull %0, ptr noundef %19, i32 poison, i32 noundef %2)
  tail call void @Cudd_Ref(ptr noundef %25) #12
  %26 = load ptr, ptr %10, align 8
  %27 = tail call ptr @Cudd_bddExistAbstract(ptr noundef %26, ptr noundef nonnull %20, ptr noundef %25) #12
  %28 = icmp eq ptr %27, null
  br i1 %28, label %29, label %32

29:                                               ; preds = %24
  %30 = load ptr, ptr %10, align 8
  tail call void @Cudd_RecursiveDeref(ptr noundef %30, ptr noundef nonnull %20) #12
  %31 = load ptr, ptr %10, align 8
  tail call void @Cudd_RecursiveDeref(ptr noundef %31, ptr noundef %25) #12
  br label %57

32:                                               ; preds = %24
  tail call void @Cudd_Ref(ptr noundef nonnull %27) #12
  %33 = load ptr, ptr %10, align 8
  tail call void @Cudd_RecursiveDeref(ptr noundef %33, ptr noundef nonnull %20) #12
  %34 = load ptr, ptr %10, align 8
  tail call void @Cudd_RecursiveDeref(ptr noundef %34, ptr noundef %25) #12
  br i1 %.not, label %37, label %35

35:                                               ; preds = %32
  %36 = tail call ptr @Llb_ManConstructQuantCubeBwd(ptr noundef nonnull %0, ptr noundef %19, i32 noundef %14)
  br label %39

37:                                               ; preds = %32
  %38 = tail call ptr @Llb_ManConstructQuantCubeFwd(ptr noundef nonnull %0, ptr noundef %19, i32 noundef %.083101)
  br label %39

39:                                               ; preds = %37, %35
  %.085 = phi ptr [ %36, %35 ], [ %38, %37 ]
  tail call void @Cudd_Ref(ptr noundef %.085) #12
  %40 = load ptr, ptr %10, align 8
  %41 = tail call ptr @Cudd_bddAndAbstract(ptr noundef %40, ptr noundef %.081102, ptr noundef nonnull %27, ptr noundef %.085) #12
  %42 = icmp eq ptr %41, null
  br i1 %42, label %43, label %47

43:                                               ; preds = %39
  %44 = load ptr, ptr %10, align 8
  tail call void @Cudd_RecursiveDeref(ptr noundef %44, ptr noundef %.081102) #12
  %45 = load ptr, ptr %10, align 8
  tail call void @Cudd_RecursiveDeref(ptr noundef %45, ptr noundef nonnull %27) #12
  %46 = load ptr, ptr %10, align 8
  tail call void @Cudd_RecursiveDeref(ptr noundef %46, ptr noundef %.085) #12
  br label %57

47:                                               ; preds = %39
  tail call void @Cudd_Ref(ptr noundef nonnull %41) #12
  %48 = load ptr, ptr %10, align 8
  tail call void @Cudd_RecursiveDeref(ptr noundef %48, ptr noundef %.081102) #12
  %49 = load ptr, ptr %10, align 8
  tail call void @Cudd_RecursiveDeref(ptr noundef %49, ptr noundef nonnull %27) #12
  %50 = load ptr, ptr %10, align 8
  tail call void @Cudd_RecursiveDeref(ptr noundef %50, ptr noundef %.085) #12
  %51 = add nuw nsw i32 %.083101, 1
  %52 = load ptr, ptr %4, align 8
  %53 = getelementptr inbounds nuw i8, ptr %52, i64 12
  %54 = load i32, ptr %53, align 4
  %55 = add nsw i32 %54, -1
  %56 = icmp slt i32 %51, %55
  br i1 %56, label %11, label %._crit_edge, !llvm.loop !20

._crit_edge:                                      ; preds = %47, %3
  %.081.lcssa = phi ptr [ %1, %3 ], [ %41, %47 ]
  tail call void @Cudd_Deref(ptr noundef %.081.lcssa) #12
  br label %57

57:                                               ; preds = %._crit_edge, %43, %29, %22
  %.0 = phi ptr [ null, %22 ], [ null, %29 ], [ null, %43 ], [ %.081.lcssa, %._crit_edge ]
  ret ptr %.0
}